target datalayout = "e-m:e-p270:32:32-p271:32:32-p272:64:64-i64:64-i128:128-f80:128-n8:16:32:64-S128"
target triple = "x86_64-pc-linux-gnu"

@.str.126 = private unnamed_addr constant [15 x i8] c"%s[%u]: 0x%08x\00", align 1

; Function Attrs: nounwind uwtable
define i32 @dissect_dcom_indexed_DWORD(ptr noundef %0, i32 noundef %1, ptr noundef %2, ptr noundef %3, ptr noundef %4, ptr noundef %5, i32 noundef %6, ptr noundef %7, i32 noundef %8) #0 {
  %10 = alloca ptr, align 8
  %11 = alloca i32, align 4
  %12 = alloca ptr, align 8
  %13 = alloca ptr, align 8
  %14 = alloca ptr, align 8
  %15 = alloca ptr, align 8
  %16 = alloca i32, align 4
  %17 = alloca ptr, align 8
  %18 = alloca i32, align 4
  %19 = alloca i32, align 4
  store ptr %0, ptr %10, align 8
  store i32 %1, ptr %11, align 4
  store ptr %2, ptr %12, align 8
  store ptr %3, ptr %13, align 8
  store ptr %4, ptr %14, align 8
  store ptr %5, ptr %15, align 8
  store i32 %6, ptr %16, align 4
  store ptr %7, ptr %17, align 8
  store i32 %8, ptr %18, align 4
  %20 = load ptr, ptr %10, align 8
  %21 = load i32, ptr %11, align 4
  %22 = load ptr, ptr %12, align 8
  %23 = load ptr, ptr %14, align 8
  %24 = load ptr, ptr %15, align 8
  %25 = load i32, ptr %16, align 4
  %26 = call i32 @dissect_ndr_uint32(ptr noundef %20, i32 noundef %21, ptr noundef %22, ptr noundef null, ptr noundef %23, ptr noundef %24, i32 noundef %25, ptr noundef %19)
  %27 = load ptr, ptr %13, align 8
  %28 = icmp ne ptr %27, null
  br i1 %28, label %29, label %40

29:                                               ; preds = %9
  %30 = load ptr, ptr %13, align 8
  %31 = load i32, ptr %16, align 4
  %32 = load ptr, ptr %10, align 8
  %33 = load i32, ptr %11, align 4
  %34 = load i32, ptr %19, align 4
  %35 = load i32, ptr %16, align 4
  %36 = call ptr @proto_registrar_get_name(i32 noundef %35)
  %37 = load i32, ptr %18, align 4
  %38 = load i32, ptr %19, align 4
  %39 = call ptr (ptr, i32, ptr, i32, i32, i32, ptr, ...) @proto_tree_add_uint_format(ptr noundef %30, i32 noundef %31, ptr noundef %32, i32 noundef %33, i32 noundef 4, i32 noundef %34, ptr noundef @.str.126, ptr noundef %36, i32 noundef %37, i32 noundef %38)
  br label %40

40:                                               ; preds = %29, %9
  %41 = load i32, ptr %11, align 4
  %42 = add i32 %41, 4
  store i32 %42, ptr %11, align 4
  %43 = load ptr, ptr %17, align 8
  %44 = icmp ne ptr %43, null
  br i1 %44, label %45, label %48

45:                                               ; preds = %40
  %46 = load i32, ptr %19, align 4
  %47 = load ptr, ptr %17, align 8
  store i32 %46, ptr %47, align 4
  br label %48

48:                                               ; preds = %45, %40
  %49 = load i32, ptr %11, align 4
  ret i32 %49
}