; Function Attrs: nounwind uwtable
define noundef i32 @dissect_dcom_indexed_DWORD(ptr noundef %0, i32 noundef %1, ptr noundef %2, ptr noundef %3, ptr noundef %4, ptr noundef %5, i32 noundef %6, ptr noundef writeonly %7, i32 noundef %8) local_unnamed_addr #1 {
  %10 = alloca i32, align 4
  %11 = call i32 @dissect_ndr_uint32(ptr noundef %0, i32 noundef %1, ptr noundef %2, ptr noundef null, ptr noundef %4, ptr noundef %5, i32 noundef %6, ptr noundef nonnull %10) #11
  %.not = icmp eq ptr %3, null
  br i1 %.not, label %17, label %12

12:                                               ; preds = %9
  %13 = load i32, ptr %10, align 4
  %14 = call ptr @proto_registrar_get_name(i32 noundef %6) #11
  %15 = load i32, ptr %10, align 4
  %16 = call ptr (ptr, i32, ptr, i32, i32, i32, ptr, ...) @proto_tree_add_uint_format(ptr noundef nonnull %3, i32 noundef %6, ptr noundef %0, i32 noundef %1, i32 noundef 4, i32 noundef %13, ptr noundef nonnull @.str.126, ptr noundef %14, i32 noundef %8, i32 noundef %15) #11
  br label %17

17:                                               ; preds = %12, %9
  %.not17 = icmp eq ptr %7, null
  br i1 %.not17, label %20, label %18

18:                                               ; preds = %17
  %19 = load i32, ptr %10, align 4
  store i32 %19, ptr %7, align 4
  br label %20

20:                                               ; preds = %18, %17
  %21 = add i32 %1, 4
  ret i32 %21
}